target datalayout = "e-m:e-p270:32:32-p271:32:32-p272:64:64-i64:64-i128:128-f80:128-n8:16:32:64-S128"
target triple = "x86_64-pc-linux-gnu"

%struct.mi_random_cxt_s = type { [16 x i32], [16 x i32], i32, i8 }

; Function Attrs: inlinehint nounwind uwtable
define internal i32 @rotl(i32 noundef %0, i32 noundef %1) #3 {
  %3 = alloca i32, align 4
  %4 = alloca i32, align 4
  store i32 %0, ptr %3, align 4, !tbaa !10
  store i32 %1, ptr %4, align 4, !tbaa !10
  %5 = load i32, ptr %3, align 4, !tbaa !10
  %6 = load i32, ptr %4, align 4, !tbaa !10
  %7 = shl i32 %5, %6
  %8 = load i32, ptr %3, align 4, !tbaa !10
  %9 = load i32, ptr %4, align 4, !tbaa !10
  %10 = sub i32 32, %9
  %11 = lshr i32 %8, %10
  %12 = or i32 %7, %11
  ret i32 %12
}

; Function Attrs: inlinehint nounwind uwtable
define internal void @qround(ptr noundef %0, i64 noundef %1, i64 noundef %2, i64 noundef %3, i64 noundef %4) #3 {
  %6 = alloca ptr, align 8
  %7 = alloca i64, align 8
  %8 = alloca i64, align 8
  %9 = alloca i64, align 8
  %10 = alloca i64, align 8
  store ptr %0, ptr %6, align 8, !tbaa !26
  store i64 %1, ptr %7, align 8, !tbaa !8
  store i64 %2, ptr %8, align 8, !tbaa !8
  store i64 %3, ptr %9, align 8, !tbaa !8
  store i64 %4, ptr %10, align 8, !tbaa !8
  %11 = load ptr, ptr %6, align 8, !tbaa !26
  %12 = load i64, ptr %8, align 8, !tbaa !8
  %13 = getelementptr inbounds nuw i32, ptr %11, i64 %12
  %14 = load i32, ptr %13, align 4, !tbaa !10
  %15 = load ptr, ptr %6, align 8, !tbaa !26
  %16 = load i64, ptr %7, align 8, !tbaa !8
  %17 = getelementptr inbounds nuw i32, ptr %15, i64 %16
  %18 = load i32, ptr %17, align 4, !tbaa !10
  %19 = add i32 %18, %14
  store i32 %19, ptr %17, align 4, !tbaa !10
  %20 = load ptr, ptr %6, align 8, !tbaa !26
  %21 = load i64, ptr %10, align 8, !tbaa !8
  %22 = getelementptr inbounds nuw i32, ptr %20, i64 %21
  %23 = load i32, ptr %22, align 4, !tbaa !10
  %24 = load ptr, ptr %6, align 8, !tbaa !26
  %25 = load i64, ptr %7, align 8, !tbaa !8
  %26 = getelementptr inbounds nuw i32, ptr %24, i64 %25
  %27 = load i32, ptr %26, align 4, !tbaa !10
  %28 = xor i32 %23, %27
  %29 = call i32 @rotl(i32 noundef %28, i32 noundef 16) #6
  %30 = load ptr, ptr %6, align 8, !tbaa !26
  %31 = load i64, ptr %10, align 8, !tbaa !8
  %32 = getelementptr inbounds nuw i32, ptr %30, i64 %31
  store i32 %29, ptr %32, align 4, !tbaa !10
  %33 = load ptr, ptr %6, align 8, !tbaa !26
  %34 = load i64, ptr %10, align 8, !tbaa !8
  %35 = getelementptr inbounds nuw i32, ptr %33, i64 %34
  %36 = load i32, ptr %35, align 4, !tbaa !10
  %37 = load ptr, ptr %6, align 8, !tbaa !26
  %38 = load i64, ptr %9, align 8, !tbaa !8
  %39 = getelementptr inbounds nuw i32, ptr %37, i64 %38
  %40 = load i32, ptr %39, align 4, !tbaa !10
  %41 = add i32 %40, %36
  store i32 %41, ptr %39, align 4, !tbaa !10
  %42 = load ptr, ptr %6, align 8, !tbaa !26
  %43 = load i64, ptr %8, align 8, !tbaa !8
  %44 = getelementptr inbounds nuw i32, ptr %42, i64 %43
  %45 = load i32, ptr %44, align 4, !tbaa !10
  %46 = load ptr, ptr %6, align 8, !tbaa !26
  %47 = load i64, ptr %9, align 8, !tbaa !8
  %48 = getelementptr inbounds nuw i32, ptr %46, i64 %47
  %49 = load i32, ptr %48, align 4, !tbaa !10
  %50 = xor i32 %45, %49
  %51 = call i32 @rotl(i32 noundef %50, i32 noundef 12) #6
  %52 = load ptr, ptr %6, align 8, !tbaa !26
  %53 = load i64, ptr %8, align 8, !tbaa !8
  %54 = getelementptr inbounds nuw i32, ptr %52, i64 %53
  store i32 %51, ptr %54, align 4, !tbaa !10
  %55 = load ptr, ptr %6, align 8, !tbaa !26
  %56 = load i64, ptr %8, align 8, !tbaa !8
  %57 = getelementptr inbounds nuw i32, ptr %55, i64 %56
  %58 = load i32, ptr %57, align 4, !tbaa !10
  %59 = load ptr, ptr %6, align 8, !tbaa !26
  %60 = load i64, ptr %7, align 8, !tbaa !8
  %61 = getelementptr inbounds nuw i32, ptr %59, i64 %60
  %62 = load i32, ptr %61, align 4, !tbaa !10
  %63 = add i32 %62, %58
  store i32 %63, ptr %61, align 4, !tbaa !10
  %64 = load ptr, ptr %6, align 8, !tbaa !26
  %65 = load i64, ptr %10, align 8, !tbaa !8
  %66 = getelementptr inbounds nuw i32, ptr %64, i64 %65
  %67 = load i32, ptr %66, align 4, !tbaa !10
  %68 = load ptr, ptr %6, align 8, !tbaa !26
  %69 = load i64, ptr %7, align 8, !tbaa !8
  %70 = getelementptr inbounds nuw i32, ptr %68, i64 %69
  %71 = load i32, ptr %70, align 4, !tbaa !10
  %72 = xor i32 %67, %71
  %73 = call i32 @rotl(i32 noundef %72, i32 noundef 8) #6
  %74 = load ptr, ptr %6, align 8, !tbaa !26
  %75 = load i64, ptr %10, align 8, !tbaa !8
  %76 = getelementptr inbounds nuw i32, ptr %74, i64 %75
  store i32 %73, ptr %76, align 4, !tbaa !10
  %77 = load ptr, ptr %6, align 8, !tbaa !26
  %78 = load i64, ptr %10, align 8, !tbaa !8
  %79 = getelementptr inbounds nuw i32, ptr %77, i64 %78
  %80 = load i32, ptr %79, align 4, !tbaa !10
  %81 = load ptr, ptr %6, align 8, !tbaa !26
  %82 = load i64, ptr %9, align 8, !tbaa !8
  %83 = getelementptr inbounds nuw i32, ptr %81, i64 %82
  %84 = load i32, ptr %83, align 4, !tbaa !10
  %85 = add i32 %84, %80
  store i32 %85, ptr %83, align 4, !tbaa !10
  %86 = load ptr, ptr %6, align 8, !tbaa !26
  %87 = load i64, ptr %8, align 8, !tbaa !8
  %88 = getelementptr inbounds nuw i32, ptr %86, i64 %87
  %89 = load i32, ptr %88, align 4, !tbaa !10
  %90 = load ptr, ptr %6, align 8, !tbaa !26
  %91 = load i64, ptr %9, align 8, !tbaa !8
  %92 = getelementptr inbounds nuw i32, ptr %90, i64 %91
  %93 = load i32, ptr %92, align 4, !tbaa !10
  %94 = xor i32 %89, %93
  %95 = call i32 @rotl(i32 noundef %94, i32 noundef 7) #6
  %96 = load ptr, ptr %6, align 8, !tbaa !26
  %97 = load i64, ptr %8, align 8, !tbaa !8
  %98 = getelementptr inbounds nuw i32, ptr %96, i64 %97
  store i32 %95, ptr %98, align 4, !tbaa !10
  ret void
}

; Function Attrs: nounwind uwtable
define internal void @chacha_block(ptr noundef %0) #0 {
  %2 = alloca ptr, align 8
  %3 = alloca [16 x i32], align 16
  %4 = alloca i64, align 8
  %5 = alloca i64, align 8
  %6 = alloca i64, align 8
  store ptr %0, ptr %2, align 8, !tbaa !3
  call void @llvm.lifetime.start.p0(i64 64, ptr %3) #7
  call void @llvm.lifetime.start.p0(i64 8, ptr %4) #7
  store i64 0, ptr %4, align 8, !tbaa !8
  br label %7

7:                                                ; preds = %19, %1
  %8 = load i64, ptr %4, align 8, !tbaa !8
  %9 = icmp ult i64 %8, 16
  br i1 %9, label %11, label %10

10:                                               ; preds = %7
  call void @llvm.lifetime.end.p0(i64 8, ptr %4) #7
  br label %22

11:                                               ; preds = %7
  %12 = load ptr, ptr %2, align 8, !tbaa !3
  %13 = getelementptr inbounds nuw %struct.mi_random_cxt_s, ptr %12, i32 0, i32 0
  %14 = load i64, ptr %4, align 8, !tbaa !8
  %15 = getelementptr inbounds nuw [16 x i32], ptr %13, i64 0, i64 %14
  %16 = load i32, ptr %15, align 4, !tbaa !10
  %17 = load i64, ptr %4, align 8, !tbaa !8
  %18 = getelementptr inbounds nuw [16 x i32], ptr %3, i64 0, i64 %17
  store i32 %16, ptr %18, align 4, !tbaa !10
  br label %19

19:                                               ; preds = %11
  %20 = load i64, ptr %4, align 8, !tbaa !8
  %21 = add i64 %20, 1
  store i64 %21, ptr %4, align 8, !tbaa !8
  br label %7, !llvm.loop !23

22:                                               ; preds = %10
  call void @llvm.lifetime.start.p0(i64 8, ptr %5) #7
  store i64 0, ptr %5, align 8, !tbaa !8
  br label %23

23:                                               ; preds = %36, %22
  %24 = load i64, ptr %5, align 8, !tbaa !8
  %25 = icmp ult i64 %24, 20
  br i1 %25, label %27, label %26

26:                                               ; preds = %23
  call void @llvm.lifetime.end.p0(i64 8, ptr %5) #7
  br label %39

27:                                               ; preds = %23
  %28 = getelementptr inbounds [16 x i32], ptr %3, i64 0, i64 0
  call void @qround(ptr noundef %28, i64 noundef 0, i64 noundef 4, i64 noundef 8, i64 noundef 12) #6
  %29 = getelementptr inbounds [16 x i32], ptr %3, i64 0, i64 0
  call void @qround(ptr noundef %29, i64 noundef 1, i64 noundef 5, i64 noundef 9, i64 noundef 13) #6
  %30 = getelementptr inbounds [16 x i32], ptr %3, i64 0, i64 0
  call void @qround(ptr noundef %30, i64 noundef 2, i64 noundef 6, i64 noundef 10, i64 noundef 14) #6
  %31 = getelementptr inbounds [16 x i32], ptr %3, i64 0, i64 0
  call void @qround(ptr noundef %31, i64 noundef 3, i64 noundef 7, i64 noundef 11, i64 noundef 15) #6
  %32 = getelementptr inbounds [16 x i32], ptr %3, i64 0, i64 0
  call void @qround(ptr noundef %32, i64 noundef 0, i64 noundef 5, i64 noundef 10, i64 noundef 15) #6
  %33 = getelementptr inbounds [16 x i32], ptr %3, i64 0, i64 0
  call void @qround(ptr noundef %33, i64 noundef 1, i64 noundef 6, i64 noundef 11, i64 noundef 12) #6
  %34 = getelementptr inbounds [16 x i32], ptr %3, i64 0, i64 0
  call void @qround(ptr noundef %34, i64 noundef 2, i64 noundef 7, i64 noundef 8, i64 noundef 13) #6
  %35 = getelementptr inbounds [16 x i32], ptr %3, i64 0, i64 0
  call void @qround(ptr noundef %35, i64 noundef 3, i64 noundef 4, i64 noundef 9, i64 noundef 14) #6
  br label %36

36:                                               ; preds = %27
  %37 = load i64, ptr %5, align 8, !tbaa !8
  %38 = add i64 %37, 2
  store i64 %38, ptr %5, align 8, !tbaa !8
  br label %23, !llvm.loop !24

39:                                               ; preds = %26
  call void @llvm.lifetime.start.p0(i64 8, ptr %6) #7
  store i64 0, ptr %6, align 8, !tbaa !8
  br label %40

40:                                               ; preds = %58, %39
  %41 = load i64, ptr %6, align 8, !tbaa !8
  %42 = icmp ult i64 %41, 16
  br i1 %42, label %44, label %43

43:                                               ; preds = %40
  call void @llvm.lifetime.end.p0(i64 8, ptr %6) #7
  br label %61

44:                                               ; preds = %40
  %45 = load i64, ptr %6, align 8, !tbaa !8
  %46 = getelementptr inbounds nuw [16 x i32], ptr %3, i64 0, i64 %45
  %47 = load i32, ptr %46, align 4, !tbaa !10
  %48 = load ptr, ptr %2, align 8, !tbaa !3
  %49 = getelementptr inbounds nuw %struct.mi_random_cxt_s, ptr %48, i32 0, i32 0
  %50 = load i64, ptr %6, align 8, !tbaa !8
  %51 = getelementptr inbounds nuw [16 x i32], ptr %49, i64 0, i64 %50
  %52 = load i32, ptr %51, align 4, !tbaa !10
  %53 = add i32 %47, %52
  %54 = load ptr, ptr %2, align 8, !tbaa !3
  %55 = getelementptr inbounds nuw %struct.mi_random_cxt_s, ptr %54, i32 0, i32 1
  %56 = load i64, ptr %6, align 8, !tbaa !8
  %57 = getelementptr inbounds nuw [16 x i32], ptr %55, i64 0, i64 %56
  store i32 %53, ptr %57, align 4, !tbaa !10
  br label %58

58:                                               ; preds = %44
  %59 = load i64, ptr %6, align 8, !tbaa !8
  %60 = add i64 %59, 1
  store i64 %60, ptr %6, align 8, !tbaa !8
  br label %40, !llvm.loop !25

61:                                               ; preds = %43
  %62 = load ptr, ptr %2, align 8, !tbaa !3
  %63 = getelementptr inbounds nuw %struct.mi_random_cxt_s, ptr %62, i32 0, i32 2
  store i32 16, ptr %63, align 4, !tbaa !12
  %64 = load ptr, ptr %2, align 8, !tbaa !3
  %65 = getelementptr inbounds nuw %struct.mi_random_cxt_s, ptr %64, i32 0, i32 0
  %66 = getelementptr inbounds [16 x i32], ptr %65, i64 0, i64 12
  %67 = load i32, ptr %66, align 4, !tbaa !10
  %68 = add i32 %67, 1
  store i32 %68, ptr %66, align 4, !tbaa !10
  %69 = load ptr, ptr %2, align 8, !tbaa !3
  %70 = getelementptr inbounds nuw %struct.mi_random_cxt_s, ptr %69, i32 0, i32 0
  %71 = getelementptr inbounds [16 x i32], ptr %70, i64 0, i64 12
  %72 = load i32, ptr %71, align 4, !tbaa !10
  %73 = icmp eq i32 %72, 0
  br i1 %73, label %74, label %92

74:                                               ; preds = %61
  %75 = load ptr, ptr %2, align 8, !tbaa !3
  %76 = getelementptr inbounds nuw %struct.mi_random_cxt_s, ptr %75, i32 0, i32 0
  %77 = getelementptr inbounds [16 x i32], ptr %76, i64 0, i64 13
  %78 = load i32, ptr %77, align 4, !tbaa !10
  %79 = add i32 %78, 1
  store i32 %79, ptr %77, align 4, !tbaa !10
  %80 = load ptr, ptr %2, align 8, !tbaa !3
  %81 = getelementptr inbounds nuw %struct.mi_random_cxt_s, ptr %80, i32 0, i32 0
  %82 = getelementptr inbounds [16 x i32], ptr %81, i64 0, i64 13
  %83 = load i32, ptr %82, align 4, !tbaa !10
  %84 = icmp eq i32 %83, 0
  br i1 %84, label %85, label %91

85:                                               ; preds = %74
  %86 = load ptr, ptr %2, align 8, !tbaa !3
  %87 = getelementptr inbounds nuw %struct.mi_random_cxt_s, ptr %86, i32 0, i32 0
  %88 = getelementptr inbounds [16 x i32], ptr %87, i64 0, i64 14
  %89 = load i32, ptr %88, align 4, !tbaa !10
  %90 = add i32 %89, 1
  store i32 %90, ptr %88, align 4, !tbaa !10
  br label %91

91:                                               ; preds = %85, %74
  br label %92

92:                                               ; preds = %91, %61
  call void @llvm.lifetime.end.p0(i64 64, ptr %3) #7
  ret void
}